target datalayout = "e-m:e-p270:32:32-p271:32:32-p272:64:64-i64:64-i128:128-f80:128-n8:16:32:64-S128"
target triple = "x86_64-pc-linux-gnu"

%struct._DtBauhausWidget = type { %struct._GtkDrawingArea, i32, ptr, ptr, i32, [256 x i8], i32, ptr, i32, ptr, ptr, i32, ptr, i32, i32, i32, %struct._GtkBorder, %struct._GtkBorder, i32, %union.dt_bauhaus_data_t }
%struct._GtkDrawingArea = type { %struct._GtkWidget, ptr }
%struct._GtkWidget = type { %struct._GObject, ptr }
%struct._GObject = type { %struct._GTypeInstance, i32, ptr }
%struct._GTypeInstance = type { ptr }
%struct._GtkBorder = type { i16, i16, i16, i16 }
%union.dt_bauhaus_data_t = type { %struct.dt_bauhaus_slider_data_t }
%struct.dt_bauhaus_slider_data_t = type { float, float, float, float, float, float, float, float, float, float, i32, ptr, i32, ptr, i8, ptr, float, float, i8, i32, ptr }
%struct.dt_bauhaus_combobox_data_t = type { i32, i32, i32, i32, ptr, i32, ptr, i32, ptr }
%struct._GTypeClass = type { i64 }
%struct._GObjectClass = type { %struct._GTypeClass, ptr, ptr, ptr, ptr, ptr, ptr, ptr, ptr, ptr, i64, [6 x ptr] }

@dt_bh_get_type.static_g_define_type_id = internal global i64 0, align 8
@dt_bh_parent_class = internal global ptr null, align 8

; Function Attrs: nounwind uwtable
define i64 @dt_bh_get_type() #0 {
  %1 = alloca i32, align 4
  %2 = alloca i64, align 8
  %3 = alloca ptr, align 8
  %4 = alloca i64, align 8
  %5 = alloca i64, align 8
  call void @llvm.lifetime.start.p0(i64 8, ptr %2) #13
  call void @llvm.lifetime.start.p0(i64 8, ptr %3) #13
  store ptr @dt_bh_get_type.static_g_define_type_id, ptr %3, align 8, !tbaa !6
  %6 = load ptr, ptr %3, align 8, !tbaa !6
  %7 = load atomic i64, ptr %6 seq_cst, align 8
  store i64 %7, ptr %2, align 8
  %8 = load i64, ptr %2, align 8, !tbaa !11
  store i64 %8, ptr %4, align 8, !tbaa !11
  call void @llvm.lifetime.end.p0(i64 8, ptr %3) #13
  call void @llvm.lifetime.end.p0(i64 8, ptr %2) #13
  %9 = load i64, ptr %4, align 8, !tbaa !11
  %10 = icmp ne i64 %9, 0
  br i1 %10, label %14, label %11

11:                                               ; preds = %0
  %12 = call i32 @g_once_init_enter(ptr noundef @dt_bh_get_type.static_g_define_type_id)
  %13 = icmp ne i32 %12, 0
  br label %14

14:                                               ; preds = %11, %0
  %15 = phi i1 [ false, %0 ], [ %13, %11 ]
  %16 = zext i1 %15 to i32
  store i32 %16, ptr %1, align 4, !tbaa !13
  %17 = load i32, ptr %1, align 4, !tbaa !13
  %18 = icmp ne i32 %17, 0
  br i1 %18, label %19, label %22

19:                                               ; preds = %14
  call void @llvm.lifetime.start.p0(i64 8, ptr %5) #13
  %20 = call i64 @dt_bh_get_type_once()
  store i64 %20, ptr %5, align 8, !tbaa !11
  %21 = load i64, ptr %5, align 8, !tbaa !11
  call void @g_once_init_leave(ptr noundef @dt_bh_get_type.static_g_define_type_id, i64 noundef %21)
  call void @llvm.lifetime.end.p0(i64 8, ptr %5) #13
  br label %22

22:                                               ; preds = %19, %14
  %23 = load i64, ptr @dt_bh_get_type.static_g_define_type_id, align 8, !tbaa !11
  ret i64 %23
}

; Function Attrs: inlinehint nounwind uwtable
define internal ptr @DT_BAUHAUS_WIDGET(ptr noundef %0) #4 {
  %2 = alloca ptr, align 8
  store ptr %0, ptr %2, align 8, !tbaa !32
  %3 = load ptr, ptr %2, align 8, !tbaa !32
  %4 = call i64 @dt_bh_get_type()
  %5 = call ptr @g_type_check_instance_cast(ptr noundef %3, i64 noundef %4)
  ret ptr %5
}

; Function Attrs: nounwind uwtable
define internal void @_widget_finalize(ptr noundef %0) #0 {
  %2 = alloca ptr, align 8
  %3 = alloca ptr, align 8
  %4 = alloca ptr, align 8
  %5 = alloca ptr, align 8
  store ptr %0, ptr %2, align 8, !tbaa !111
  call void @llvm.lifetime.start.p0(i64 8, ptr %3) #13
  %6 = load ptr, ptr %2, align 8, !tbaa !111
  %7 = call ptr @DT_BAUHAUS_WIDGET(ptr noundef %6)
  store ptr %7, ptr %3, align 8, !tbaa !17
  %8 = load ptr, ptr %3, align 8, !tbaa !17
  %9 = getelementptr inbounds nuw %struct._DtBauhausWidget, ptr %8, i32 0, i32 1
  %10 = load i32, ptr %9, align 8, !tbaa !139
  %11 = icmp eq i32 %10, 1
  br i1 %11, label %12, label %31

12:                                               ; preds = %1
  call void @llvm.lifetime.start.p0(i64 8, ptr %4) #13
  %13 = load ptr, ptr %3, align 8, !tbaa !17
  %14 = getelementptr inbounds nuw %struct._DtBauhausWidget, ptr %13, i32 0, i32 19
  store ptr %14, ptr %4, align 8, !tbaa !140
  %15 = load ptr, ptr %4, align 8, !tbaa !140
  %16 = getelementptr inbounds nuw %struct.dt_bauhaus_slider_data_t, ptr %15, i32 0, i32 19
  %17 = load i32, ptr %16, align 4, !tbaa !268
  %18 = icmp ne i32 %17, 0
  br i1 %18, label %19, label %24

19:                                               ; preds = %12
  %20 = load ptr, ptr %4, align 8, !tbaa !140
  %21 = getelementptr inbounds nuw %struct.dt_bauhaus_slider_data_t, ptr %20, i32 0, i32 19
  %22 = load i32, ptr %21, align 4, !tbaa !268
  %23 = call i32 @g_source_remove(i32 noundef %22)
  br label %24

24:                                               ; preds = %19, %12
  %25 = load ptr, ptr %4, align 8, !tbaa !140
  %26 = getelementptr inbounds nuw %struct.dt_bauhaus_slider_data_t, ptr %25, i32 0, i32 11
  %27 = load ptr, ptr %26, align 8, !tbaa !266
  call void @free(ptr noundef %27) #13
  %28 = load ptr, ptr %4, align 8, !tbaa !140
  %29 = getelementptr inbounds nuw %struct.dt_bauhaus_slider_data_t, ptr %28, i32 0, i32 13
  %30 = load ptr, ptr %29, align 8, !tbaa !267
  call void @free(ptr noundef %30) #13
  call void @llvm.lifetime.end.p0(i64 8, ptr %4) #13
  br label %41

31:                                               ; preds = %1
  call void @llvm.lifetime.start.p0(i64 8, ptr %5) #13
  %32 = load ptr, ptr %3, align 8, !tbaa !17
  %33 = getelementptr inbounds nuw %struct._DtBauhausWidget, ptr %32, i32 0, i32 19
  store ptr %33, ptr %5, align 8, !tbaa !153
  %34 = load ptr, ptr %5, align 8, !tbaa !153
  %35 = getelementptr inbounds nuw %struct.dt_bauhaus_combobox_data_t, ptr %34, i32 0, i32 6
  %36 = load ptr, ptr %35, align 8, !tbaa !156
  %37 = call ptr @g_ptr_array_free(ptr noundef %36, i32 noundef 1)
  %38 = load ptr, ptr %5, align 8, !tbaa !153
  %39 = getelementptr inbounds nuw %struct.dt_bauhaus_combobox_data_t, ptr %38, i32 0, i32 4
  %40 = load ptr, ptr %39, align 8, !tbaa !199
  call void @free(ptr noundef %40) #13
  call void @llvm.lifetime.end.p0(i64 8, ptr %5) #13
  br label %41

41:                                               ; preds = %31, %24
  %42 = load ptr, ptr %3, align 8, !tbaa !17
  %43 = getelementptr inbounds nuw %struct._DtBauhausWidget, ptr %42, i32 0, i32 7
  %44 = load ptr, ptr %43, align 8, !tbaa !215
  call void @g_free(ptr noundef %44)
  %45 = load ptr, ptr %3, align 8, !tbaa !17
  %46 = getelementptr inbounds nuw %struct._DtBauhausWidget, ptr %45, i32 0, i32 10
  %47 = load ptr, ptr %46, align 8, !tbaa !241
  call void @g_free(ptr noundef %47)
  %48 = load ptr, ptr @dt_bh_parent_class, align 8, !tbaa !32
  %49 = call ptr @g_type_check_class_cast(ptr noundef %48, i64 noundef 80)
  %50 = getelementptr inbounds nuw %struct._GObjectClass, ptr %49, i32 0, i32 6
  %51 = load ptr, ptr %50, align 8, !tbaa !311
  %52 = load ptr, ptr %2, align 8, !tbaa !111
  call void %51(ptr noundef %52)
  call void @llvm.lifetime.end.p0(i64 8, ptr %3) #13
  ret void
}