; Function Attrs: nounwind uwtable
define internal void @_widget_finalize(ptr noundef %0) #0 {
  %2 = load atomic i64, ptr @dt_bh_get_type.static_g_define_type_id seq_cst, align 8
  %.not.i.i = icmp eq i64 %2, 0
  br i1 %.not.i.i, label %3, label %DT_BAUHAUS_WIDGET.exit

3:                                                ; preds = %1
  %4 = tail call i32 @g_once_init_enter(ptr noundef nonnull @dt_bh_get_type.static_g_define_type_id) #19
  %.not4.i.i = icmp eq i32 %4, 0
  br i1 %.not4.i.i, label %DT_BAUHAUS_WIDGET.exit, label %5

5:                                                ; preds = %3
  %6 = tail call fastcc i64 @dt_bh_get_type_once()
  tail call void @g_once_init_leave(ptr noundef nonnull @dt_bh_get_type.static_g_define_type_id, i64 noundef %6) #19
  br label %DT_BAUHAUS_WIDGET.exit

DT_BAUHAUS_WIDGET.exit:                           ; preds = %1, %3, %5
  %7 = load i64, ptr @dt_bh_get_type.static_g_define_type_id, align 8, !tbaa !6
  %8 = tail call ptr @g_type_check_instance_cast(ptr noundef %0, i64 noundef %7) #19
  %9 = getelementptr inbounds nuw i8, ptr %8, i64 40
  %10 = load i32, ptr %9, align 8, !tbaa !105
  %11 = icmp eq i32 %10, 1
  br i1 %11, label %12, label %20

12:                                               ; preds = %DT_BAUHAUS_WIDGET.exit
  %13 = getelementptr inbounds nuw i8, ptr %8, i64 508
  %14 = load i32, ptr %13, align 4, !tbaa !222
  %.not = icmp eq i32 %14, 0
  br i1 %.not, label %17, label %15

15:                                               ; preds = %12
  %16 = tail call i32 @g_source_remove(i32 noundef %14) #19
  br label %17

17:                                               ; preds = %15, %12
  %18 = getelementptr inbounds nuw i8, ptr %8, i64 456
  %19 = load ptr, ptr %18, align 8, !tbaa !220
  tail call void @free(ptr noundef %19) #19
  br label %24

20:                                               ; preds = %DT_BAUHAUS_WIDGET.exit
  %21 = getelementptr inbounds nuw i8, ptr %8, i64 440
  %22 = load ptr, ptr %21, align 8, !tbaa !128
  %23 = tail call ptr @g_ptr_array_free(ptr noundef %22, i32 noundef 1) #19
  br label %24

24:                                               ; preds = %20, %17
  %.sink = phi i64 [ 424, %20 ], [ 472, %17 ]
  %25 = getelementptr inbounds nuw i8, ptr %8, i64 %.sink
  %26 = load ptr, ptr %25, align 8, !tbaa !134
  tail call void @free(ptr noundef %26) #19
  %27 = getelementptr inbounds nuw i8, ptr %8, i64 328
  %28 = load ptr, ptr %27, align 8, !tbaa !146
  tail call void @g_free(ptr noundef %28) #19
  %29 = getelementptr inbounds nuw i8, ptr %8, i64 352
  %30 = load ptr, ptr %29, align 8, !tbaa !199
  tail call void @g_free(ptr noundef %30) #19
  %31 = load ptr, ptr @dt_bh_parent_class, align 8, !tbaa !134
  %32 = tail call ptr @g_type_check_class_cast(ptr noundef %31, i64 noundef 80) #19
  %33 = getelementptr inbounds nuw i8, ptr %32, i64 48
  %34 = load ptr, ptr %33, align 8, !tbaa !254
  tail call void %34(ptr noundef %0) #19
  ret void
}